; ModuleID = '43/104.c'
source_filename = "43/104.c"
target datalayout = "e-m:e-p270:32:32-p271:32:32-p272:64:64-i64:64-f80:128-n8:16:32:64-S128"
target triple = "x86_64-pc-linux-gnu"

@.str = private unnamed_addr constant [3 x i8] c"%d\00", align 1
@.str.1 = private unnamed_addr constant [8 x i8] c"%d %d\0A\0A\00", align 1

; Function Attrs: noinline nounwind uwtable
define dso_local i32 @main() #0 {
  %1 = alloca i32, align 4
  %2 = alloca i32, align 4
  %3 = alloca i32, align 4
  %4 = alloca i32, align 4
  %5 = alloca [10000 x i32], align 16
  %6 = alloca [10000 x i32], align 16
  %7 = alloca i32, align 4
  %8 = alloca i32, align 4
  store i32 0, i32* %1, align 4
  %9 = call i32 (i8*, ...) @__isoc99_scanf(i8* getelementptr inbounds ([3 x i8], [3 x i8]* @.str, i64 0, i64 0), i32* %2)
  store i32 2, i32* %3, align 4
  br label %10

10:                                               ; preds = %23, %0
  %11 = load i32, i32* %3, align 4
  %12 = load i32, i32* %2, align 4
  %13 = icmp sle i32 %11, %12
  br i1 %13, label %14, label %26

14:                                               ; preds = %10
  %15 = getelementptr inbounds [10000 x i32], [10000 x i32]* %5, i64 0, i64 1
  store i32 1, i32* %15, align 4
  %16 = load i32, i32* %3, align 4
  %17 = load i32, i32* %3, align 4
  %18 = sext i32 %17 to i64
  %19 = getelementptr inbounds [10000 x i32], [10000 x i32]* %5, i64 0, i64 %18
  store i32 %16, i32* %19, align 4
  %20 = load i32, i32* %3, align 4
  %21 = sext i32 %20 to i64
  %22 = getelementptr inbounds [10000 x i32], [10000 x i32]* %6, i64 0, i64 %21
  store i32 1, i32* %22, align 4
  br label %23

23:                                               ; preds = %14
  %24 = load i32, i32* %3, align 4
  %25 = add nsw i32 %24, 1
  store i32 %25, i32* %3, align 4
  br label %10

26:                                               ; preds = %10
  %27 = getelementptr inbounds [10000 x i32], [10000 x i32]* %6, i64 0, i64 2
  store i32 0, i32* %27, align 8
  %28 = getelementptr inbounds [10000 x i32], [10000 x i32]* %6, i64 0, i64 1
  store i32 0, i32* %28, align 4
  %29 = getelementptr inbounds [10000 x i32], [10000 x i32]* %6, i64 0, i64 3
  store i32 1, i32* %29, align 4
  store i32 2, i32* %4, align 4
  br label %30

30:                                               ; preds = %64, %26
  %31 = load i32, i32* %4, align 4
  %32 = sitofp i32 %31 to double
  %33 = load i32, i32* %3, align 4
  %34 = sitofp i32 %33 to double
  %35 = call double @sqrt(double %34) #3
  %36 = fcmp olt double %32, %35
  br i1 %36, label %37, label %67

37:                                               ; preds = %30
  %38 = load i32, i32* %4, align 4
  %39 = add nsw i32 %38, 1
  store i32 %39, i32* %3, align 4
  br label %40

40:                                               ; preds = %60, %37
  %41 = load i32, i32* %3, align 4
  %42 = load i32, i32* %2, align 4
  %43 = icmp sle i32 %41, %42
  br i1 %43, label %44, label %63

44:                                               ; preds = %40
  %45 = load i32, i32* %3, align 4
  %46 = sext i32 %45 to i64
  %47 = getelementptr inbounds [10000 x i32], [10000 x i32]* %5, i64 0, i64 %46
  %48 = load i32, i32* %47, align 4
  %49 = load i32, i32* %4, align 4
  %50 = sext i32 %49 to i64
  %51 = getelementptr inbounds [10000 x i32], [10000 x i32]* %5, i64 0, i64 %50
  %52 = load i32, i32* %51, align 4
  %53 = srem i32 %48, %52
  %54 = icmp eq i32 %53, 0
  br i1 %54, label %55, label %59

55:                                               ; preds = %44
  %56 = load i32, i32* %3, align 4
  %57 = sext i32 %56 to i64
  %58 = getelementptr inbounds [10000 x i32], [10000 x i32]* %6, i64 0, i64 %57
  store i32 0, i32* %58, align 4
  br label %59

59:                                               ; preds = %55, %44
  br label %60

60:                                               ; preds = %59
  %61 = load i32, i32* %3, align 4
  %62 = add nsw i32 %61, 1
  store i32 %62, i32* %3, align 4
  br label %40

63:                                               ; preds = %40
  br label %64

64:                                               ; preds = %63
  %65 = load i32, i32* %4, align 4
  %66 = add nsw i32 %65, 1
  store i32 %66, i32* %4, align 4
  br label %30

67:                                               ; preds = %30
  store i32 3, i32* %3, align 4
  br label %68

68:                                               ; preds = %142, %67
  %69 = load i32, i32* %3, align 4
  %70 = load i32, i32* %2, align 4
  %71 = icmp sle i32 %69, %70
  br i1 %71, label %72, label %145

72:                                               ; preds = %68
  store i32 3, i32* %4, align 4
  br label %73

73:                                               ; preds = %138, %72
  %74 = load i32, i32* %4, align 4
  %75 = load i32, i32* %2, align 4
  %76 = icmp sle i32 %74, %75
  br i1 %76, label %77, label %141

77:                                               ; preds = %73
  %78 = load i32, i32* %3, align 4
  %79 = sext i32 %78 to i64
  %80 = getelementptr inbounds [10000 x i32], [10000 x i32]* %6, i64 0, i64 %79
  %81 = load i32, i32* %80, align 4
  %82 = icmp eq i32 %81, 1
  br i1 %82, label %83, label %137

83:                                               ; preds = %77
  %84 = load i32, i32* %4, align 4
  %85 = sext i32 %84 to i64
  %86 = getelementptr inbounds [10000 x i32], [10000 x i32]* %6, i64 0, i64 %85
  %87 = load i32, i32* %86, align 4
  %88 = icmp eq i32 %87, 1
  br i1 %88, label %89, label %137

89:                                               ; preds = %83
  %90 = load i32, i32* %3, align 4
  %91 = sext i32 %90 to i64
  %92 = getelementptr inbounds [10000 x i32], [10000 x i32]* %5, i64 0, i64 %91
  %93 = load i32, i32* %92, align 4
  %94 = srem i32 %93, 2
  %95 = icmp eq i32 %94, 1
  br i1 %95, label %96, label %136

96:                                               ; preds = %89
  %97 = load i32, i32* %4, align 4
  %98 = sext i32 %97 to i64
  %99 = getelementptr inbounds [10000 x i32], [10000 x i32]* %5, i64 0, i64 %98
  %100 = load i32, i32* %99, align 4
  %101 = srem i32 %100, 2
  %102 = icmp eq i32 %101, 1
  br i1 %102, label %103, label %136

103:                                              ; preds = %96
  %104 = load i32, i32* %2, align 4
  %105 = load i32, i32* %3, align 4
  %106 = sext i32 %105 to i64
  %107 = getelementptr inbounds [10000 x i32], [10000 x i32]* %5, i64 0, i64 %106
  %108 = load i32, i32* %107, align 4
  %109 = load i32, i32* %4, align 4
  %110 = sext i32 %109 to i64
  %111 = getelementptr inbounds [10000 x i32], [10000 x i32]* %5, i64 0, i64 %110
  %112 = load i32, i32* %111, align 4
  %113 = add nsw i32 %108, %112
  %114 = icmp eq i32 %104, %113
  br i1 %114, label %115, label %135

115:                                              ; preds = %103
  %116 = load i32, i32* %3, align 4
  %117 = sext i32 %116 to i64
  %118 = getelementptr inbounds [10000 x i32], [10000 x i32]* %5, i64 0, i64 %117
  %119 = load i32, i32* %118, align 4
  %120 = load i32, i32* %4, align 4
  %121 = sext i32 %120 to i64
  %122 = getelementptr inbounds [10000 x i32], [10000 x i32]* %5, i64 0, i64 %121
  %123 = load i32, i32* %122, align 4
  %124 = icmp sle i32 %119, %123
  br i1 %124, label %125, label %135

125:                                              ; preds = %115
  %126 = load i32, i32* %3, align 4
  %127 = sext i32 %126 to i64
  %128 = getelementptr inbounds [10000 x i32], [10000 x i32]* %5, i64 0, i64 %127
  %129 = load i32, i32* %128, align 4
  %130 = load i32, i32* %4, align 4
  %131 = sext i32 %130 to i64
  %132 = getelementptr inbounds [10000 x i32], [10000 x i32]* %5, i64 0, i64 %131
  %133 = load i32, i32* %132, align 4
  %134 = call i32 (i8*, ...) @printf(i8* getelementptr inbounds ([8 x i8], [8 x i8]* @.str.1, i64 0, i64 0), i32 %129, i32 %133)
  br label %135

135:                                              ; preds = %125, %115, %103
  br label %136

136:                                              ; preds = %135, %96, %89
  br label %137

137:                                              ; preds = %136, %83, %77
  br label %138

138:                                              ; preds = %137
  %139 = load i32, i32* %4, align 4
  %140 = add nsw i32 %139, 1
  store i32 %140, i32* %4, align 4
  br label %73

141:                                              ; preds = %73
  br label %142

142:                                              ; preds = %141
  %143 = load i32, i32* %3, align 4
  %144 = add nsw i32 %143, 1
  store i32 %144, i32* %3, align 4
  br label %68

145:                                              ; preds = %68
  %146 = call i32 @getchar()
  %147 = call i32 @getchar()
  %148 = load i32, i32* %1, align 4
  ret i32 %148
}

declare dso_local i32 @__isoc99_scanf(i8*, ...) #1

; Function Attrs: nounwind
declare dso_local double @sqrt(double) #2

declare dso_local i32 @printf(i8*, ...) #1

declare dso_local i32 @getchar() #1


!llvm.module.flags = !{!0}
!llvm.ident = !{!1}

!0 = !{i32 1, !"wchar_size", i32 4}
!1 = !{!"clang version 10.0.0-4ubuntu1 "}
